target datalayout = "e-m:e-p270:32:32-p271:32:32-p272:64:64-i64:64-i128:128-f80:128-n8:16:32:64-S128"
target triple = "x86_64-pc-linux-gnu"

%struct.dt_action_def_t = type { ptr, ptr, ptr, ptr, i32 }
%struct._GTypeInstance = type { ptr }
%struct._GTypeClass = type { i64 }

@dt_action_def_toggle = external constant %struct.dt_action_def_t, align 8
@.str.11 = private unnamed_addr constant [19 x i8] c"button-press-event\00", align 1
@.str.12 = private unnamed_addr constant [20 x i8] c"%s\0Actrl+click to %s\00", align 1

; Function Attrs: nounwind uwtable
define ptr @dt_iop_togglebutton_new(ptr noundef %0, ptr noundef %1, ptr noundef %2, ptr noundef %3, ptr noundef %4, i32 noundef %5, i32 noundef %6, i32 noundef %7, ptr noundef %8, ptr noundef %9) #0 {
  %11 = alloca ptr, align 8
  %12 = alloca ptr, align 8
  %13 = alloca ptr, align 8
  %14 = alloca ptr, align 8
  %15 = alloca ptr, align 8
  %16 = alloca i32, align 4
  %17 = alloca i32, align 4
  %18 = alloca i32, align 4
  %19 = alloca ptr, align 8
  %20 = alloca ptr, align 8
  %21 = alloca ptr, align 8
  %22 = alloca ptr, align 8
  %23 = alloca ptr, align 8
  %24 = alloca i64, align 8
  %25 = alloca i32, align 4
  %26 = alloca i32, align 4
  store ptr %0, ptr %11, align 8, !tbaa !6
  store ptr %1, ptr %12, align 8, !tbaa !11
  store ptr %2, ptr %13, align 8, !tbaa !11
  store ptr %3, ptr %14, align 8, !tbaa !11
  store ptr %4, ptr %15, align 8, !tbaa !30
  store i32 %5, ptr %16, align 4, !tbaa !33
  store i32 %6, ptr %17, align 4, !tbaa !33
  store i32 %7, ptr %18, align 4, !tbaa !33
  store ptr %8, ptr %19, align 8, !tbaa !30
  store ptr %9, ptr %20, align 8, !tbaa !41
  call void @llvm.lifetime.start.p0(i64 8, ptr %21) #9
  %27 = load ptr, ptr %19, align 8, !tbaa !30
  %28 = call ptr @dtgtk_togglebutton_new(ptr noundef %27, i32 noundef 0, ptr noundef null)
  store ptr %28, ptr %21, align 8, !tbaa !41
  %29 = load ptr, ptr %21, align 8, !tbaa !41
  %30 = call ptr @g_type_check_instance_cast(ptr noundef %29, i64 noundef 80)
  %31 = load ptr, ptr %15, align 8, !tbaa !30
  %32 = load ptr, ptr %11, align 8, !tbaa !6
  %33 = call i64 @g_signal_connect_data(ptr noundef %30, ptr noundef @.str.11, ptr noundef %31, ptr noundef %32, ptr noundef null, i32 noundef 0)
  %34 = load ptr, ptr %14, align 8, !tbaa !11
  %35 = icmp ne ptr %34, null
  br i1 %35, label %40, label %36

36:                                               ; preds = %10
  %37 = load ptr, ptr %21, align 8, !tbaa !41
  %38 = load ptr, ptr %13, align 8, !tbaa !11
  %39 = call ptr @dcgettext(ptr noundef null, ptr noundef %38, i32 noundef 5) #9
  call void @gtk_widget_set_tooltip_text(ptr noundef %37, ptr noundef %39)
  br label %50

40:                                               ; preds = %10
  call void @llvm.lifetime.start.p0(i64 8, ptr %22) #9
  %41 = call ptr @dcgettext(ptr noundef null, ptr noundef @.str.12, i32 noundef 5) #9
  %42 = load ptr, ptr %13, align 8, !tbaa !11
  %43 = call ptr @dcgettext(ptr noundef null, ptr noundef %42, i32 noundef 5) #9
  %44 = load ptr, ptr %14, align 8, !tbaa !11
  %45 = call ptr @dcgettext(ptr noundef null, ptr noundef %44, i32 noundef 5) #9
  %46 = call noalias ptr (ptr, ...) @g_strdup_printf(ptr noundef %41, ptr noundef %43, ptr noundef %45)
  store ptr %46, ptr %22, align 8, !tbaa !11
  %47 = load ptr, ptr %21, align 8, !tbaa !41
  %48 = load ptr, ptr %22, align 8, !tbaa !11
  call void @gtk_widget_set_tooltip_text(ptr noundef %47, ptr noundef %48)
  %49 = load ptr, ptr %22, align 8, !tbaa !11
  call void @g_free(ptr noundef %49)
  call void @llvm.lifetime.end.p0(i64 8, ptr %22) #9
  br label %50

50:                                               ; preds = %40, %36
  %51 = load ptr, ptr %21, align 8, !tbaa !41
  %52 = call i64 @gtk_toggle_button_get_type() #12
  %53 = call ptr @g_type_check_instance_cast(ptr noundef %51, i64 noundef %52)
  call void @gtk_toggle_button_set_active(ptr noundef %53, i32 noundef 0)
  call void @llvm.lifetime.start.p0(i64 8, ptr %23) #9
  %54 = load ptr, ptr %20, align 8, !tbaa !41
  store ptr %54, ptr %23, align 8, !tbaa !107
  call void @llvm.lifetime.start.p0(i64 8, ptr %24) #9
  %55 = call i64 @gtk_box_get_type() #12
  store i64 %55, ptr %24, align 8, !tbaa !32
  call void @llvm.lifetime.start.p0(i64 4, ptr %25) #9
  %56 = load ptr, ptr %23, align 8, !tbaa !107
  %57 = icmp ne ptr %56, null
  br i1 %57, label %59, label %58

58:                                               ; preds = %50
  store i32 0, ptr %25, align 4, !tbaa !33
  br label %78

59:                                               ; preds = %50
  %60 = load ptr, ptr %23, align 8, !tbaa !107
  %61 = getelementptr inbounds nuw %struct._GTypeInstance, ptr %60, i32 0, i32 0
  %62 = load ptr, ptr %61, align 8, !tbaa !109
  %63 = icmp ne ptr %62, null
  br i1 %63, label %64, label %73

64:                                               ; preds = %59
  %65 = load ptr, ptr %23, align 8, !tbaa !107
  %66 = getelementptr inbounds nuw %struct._GTypeInstance, ptr %65, i32 0, i32 0
  %67 = load ptr, ptr %66, align 8, !tbaa !109
  %68 = getelementptr inbounds nuw %struct._GTypeClass, ptr %67, i32 0, i32 0
  %69 = load i64, ptr %68, align 8, !tbaa !112
  %70 = load i64, ptr %24, align 8, !tbaa !32
  %71 = icmp eq i64 %69, %70
  br i1 %71, label %72, label %73

72:                                               ; preds = %64
  store i32 1, ptr %25, align 4, !tbaa !33
  br label %77

73:                                               ; preds = %64, %59
  %74 = load ptr, ptr %23, align 8, !tbaa !107
  %75 = load i64, ptr %24, align 8, !tbaa !32
  %76 = call i32 @g_type_check_instance_is_a(ptr noundef %74, i64 noundef %75) #10
  store i32 %76, ptr %25, align 4, !tbaa !33
  br label %77

77:                                               ; preds = %73, %72
  br label %78

78:                                               ; preds = %77, %58
  %79 = load i32, ptr %25, align 4, !tbaa !33
  store i32 %79, ptr %26, align 4, !tbaa !33
  call void @llvm.lifetime.end.p0(i64 4, ptr %25) #9
  call void @llvm.lifetime.end.p0(i64 8, ptr %24) #9
  call void @llvm.lifetime.end.p0(i64 8, ptr %23) #9
  %80 = load i32, ptr %26, align 4, !tbaa !33
  %81 = icmp ne i32 %80, 0
  br i1 %81, label %82, label %87

82:                                               ; preds = %78
  %83 = load ptr, ptr %20, align 8, !tbaa !41
  %84 = call i64 @gtk_box_get_type() #12
  %85 = call ptr @g_type_check_instance_cast(ptr noundef %83, i64 noundef %84)
  %86 = load ptr, ptr %21, align 8, !tbaa !41
  call void @gtk_box_pack_end(ptr noundef %85, ptr noundef %86, i32 noundef 0, i32 noundef 0, i32 noundef 0)
  br label %87

87:                                               ; preds = %82, %78
  %88 = load ptr, ptr %11, align 8, !tbaa !6
  %89 = load ptr, ptr %12, align 8, !tbaa !11
  %90 = load ptr, ptr %13, align 8, !tbaa !11
  %91 = load ptr, ptr %21, align 8, !tbaa !41
  %92 = call ptr @dt_action_define_iop(ptr noundef %88, ptr noundef %89, ptr noundef %90, ptr noundef %91, ptr noundef @dt_action_def_toggle)
  %93 = load ptr, ptr %21, align 8, !tbaa !41
  call void @llvm.lifetime.end.p0(i64 8, ptr %21) #9
  ret ptr %93
}