; Function Attrs: nounwind uwtable
define noundef ptr @dt_iop_togglebutton_new(ptr noundef %0, ptr noundef %1, ptr noundef %2, ptr noundef %3, ptr noundef %4, i32 noundef %5, i32 noundef %6, i32 noundef %7, ptr noundef %8, ptr noundef %9) local_unnamed_addr #0 {
  %11 = tail call ptr @dtgtk_togglebutton_new(ptr noundef %8, i32 noundef 0, ptr noundef null) #11
  %12 = tail call ptr @g_type_check_instance_cast(ptr noundef %11, i64 noundef 80) #11
  %13 = tail call i64 @g_signal_connect_data(ptr noundef %12, ptr noundef nonnull @.str.11, ptr noundef %4, ptr noundef %0, ptr noundef null, i32 noundef 0) #11
  %.not = icmp eq ptr %3, null
  br i1 %.not, label %14, label %16

14:                                               ; preds = %10
  %15 = tail call ptr @dcgettext(ptr noundef null, ptr noundef %2, i32 noundef 5) #11
  tail call void @gtk_widget_set_tooltip_text(ptr noundef %11, ptr noundef %15) #11
  br label %21

16:                                               ; preds = %10
  %17 = tail call ptr @dcgettext(ptr noundef null, ptr noundef nonnull @.str.12, i32 noundef 5) #11
  %18 = tail call ptr @dcgettext(ptr noundef null, ptr noundef %2, i32 noundef 5) #11
  %19 = tail call ptr @dcgettext(ptr noundef null, ptr noundef nonnull %3, i32 noundef 5) #11
  %20 = tail call noalias ptr (ptr, ...) @g_strdup_printf(ptr noundef %17, ptr noundef %18, ptr noundef %19) #11
  tail call void @gtk_widget_set_tooltip_text(ptr noundef %11, ptr noundef %20) #11
  tail call void @g_free(ptr noundef %20) #11
  br label %21

21:                                               ; preds = %16, %14
  %22 = tail call i64 @gtk_toggle_button_get_type() #14
  %23 = tail call ptr @g_type_check_instance_cast(ptr noundef %11, i64 noundef %22) #11
  tail call void @gtk_toggle_button_set_active(ptr noundef %23, i32 noundef 0) #11
  %24 = tail call i64 @gtk_box_get_type() #14
  %.not31 = icmp eq ptr %9, null
  br i1 %.not31, label %.critedge, label %25

25:                                               ; preds = %21
  %26 = load ptr, ptr %9, align 8, !tbaa !92
  %.not32 = icmp eq ptr %26, null
  br i1 %.not32, label %30, label %27

27:                                               ; preds = %25
  %28 = load i64, ptr %26, align 8, !tbaa !95
  %29 = icmp eq i64 %28, %24
  br i1 %29, label %.critedge35, label %30

30:                                               ; preds = %27, %25
  %31 = tail call i32 @g_type_check_instance_is_a(ptr noundef nonnull %9, i64 noundef %24) #12
  %32 = icmp eq i32 %31, 0
  br i1 %32, label %.critedge, label %.critedge35

.critedge35:                                      ; preds = %27, %30
  %33 = tail call ptr @g_type_check_instance_cast(ptr noundef nonnull %9, i64 noundef %24) #11
  tail call void @gtk_box_pack_end(ptr noundef %33, ptr noundef %11, i32 noundef 0, i32 noundef 0, i32 noundef 0) #11
  br label %.critedge

.critedge:                                        ; preds = %21, %.critedge35, %30
  %34 = tail call ptr @dt_action_define_iop(ptr noundef %0, ptr noundef %1, ptr noundef %2, ptr noundef %11, ptr noundef nonnull @dt_action_def_toggle) #11
  ret ptr %11
}